; ModuleID = 'source-C-CXX/61/356.c'
source_filename = "source-C-CXX/61/356.c"
target datalayout = "e-m:e-p270:32:32-p271:32:32-p272:64:64-i64:64-f80:128-n8:16:32:64-S128"
target triple = "x86_64-pc-linux-gnu"

; Function Attrs: nounwind sspstrong uwtable
define dso_local i32 @main() local_unnamed_addr #0 {
  %1 = alloca [300 x i8], align 16
  %2 = alloca [300 x i8], align 16
  %3 = getelementptr inbounds [300 x i8], [300 x i8]* %1, i64 0, i64 0
  call void @llvm.lifetime.start.p0i8(i64 300, i8* nonnull %3) #4
  %4 = getelementptr inbounds [300 x i8], [300 x i8]* %2, i64 0, i64 0
  call void @llvm.lifetime.start.p0i8(i64 300, i8* nonnull %4) #4
  %5 = call i32 (i8*, ...) bitcast (i32 (...)* @gets to i32 (i8*, ...)*)(i8* nonnull %3) #4
  br label %6

6:                                                ; preds = %24, %0
  %7 = phi i64 [ %26, %24 ], [ 0, %0 ]
  %8 = phi i32 [ %27, %24 ], [ 0, %0 ]
  %9 = sext i32 %8 to i64
  %10 = getelementptr inbounds [300 x i8], [300 x i8]* %1, i64 0, i64 %9
  %11 = load i8, i8* %10, align 1, !tbaa !5
  switch i8 %11, label %12 [
    i8 0, label %28
    i8 32, label %14
  ]

12:                                               ; preds = %6
  %13 = getelementptr inbounds [300 x i8], [300 x i8]* %2, i64 0, i64 %7
  store i8 %11, i8* %13, align 1, !tbaa !5
  br label %24

14:                                               ; preds = %6
  %15 = getelementptr inbounds [300 x i8], [300 x i8]* %2, i64 0, i64 %7
  store i8 32, i8* %15, align 1, !tbaa !5
  br label %16

16:                                               ; preds = %16, %14
  %17 = phi i64 [ %18, %16 ], [ %9, %14 ]
  %18 = add nsw i64 %17, 1
  %19 = getelementptr inbounds [300 x i8], [300 x i8]* %1, i64 0, i64 %18
  %20 = load i8, i8* %19, align 1, !tbaa !5
  %21 = icmp eq i8 %20, 32
  br i1 %21, label %16, label %22, !llvm.loop !8

22:                                               ; preds = %16
  %23 = trunc i64 %17 to i32
  br label %24

24:                                               ; preds = %22, %12
  %25 = phi i32 [ %8, %12 ], [ %23, %22 ]
  %26 = add nuw i64 %7, 1
  %27 = add nsw i32 %25, 1
  br label %6, !llvm.loop !10

28:                                               ; preds = %6
  %29 = and i64 %7, 4294967295
  %30 = getelementptr inbounds [300 x i8], [300 x i8]* %2, i64 0, i64 %29
  store i8 0, i8* %30, align 1, !tbaa !5
  %31 = call i32 @puts(i8* nonnull %4)
  call void @llvm.lifetime.end.p0i8(i64 300, i8* nonnull %4) #4
  call void @llvm.lifetime.end.p0i8(i64 300, i8* nonnull %3) #4
  ret i32 0
}

; Function Attrs: argmemonly mustprogress nofree nosync nounwind willreturn
declare void @llvm.lifetime.start.p0i8(i64 immarg, i8* nocapture) #1

declare i32 @gets(...) local_unnamed_addr #2

; Function Attrs: nofree nounwind
declare noundef i32 @puts(i8* nocapture noundef readonly) local_unnamed_addr #3

; Function Attrs: argmemonly mustprogress nofree nosync nounwind willreturn
declare void @llvm.lifetime.end.p0i8(i64 immarg, i8* nocapture) #1


!llvm.module.flags = !{!0, !1, !2, !3}
!llvm.ident = !{!4}

!0 = !{i32 1, !"wchar_size", i32 4}
!1 = !{i32 7, !"PIC Level", i32 2}
!2 = !{i32 7, !"PIE Level", i32 2}
!3 = !{i32 7, !"uwtable", i32 1}
!4 = !{!"clang version 13.0.0"}
!5 = !{!6, !6, i64 0}
!6 = !{!"omnipotent char", !7, i64 0}
!7 = !{!"Simple C/C++ TBAA"}
!8 = distinct !{!8, !9}
!9 = !{!"llvm.loop.mustprogress"}
!10 = distinct !{!10, !9}
